target datalayout = "e-m:e-p270:32:32-p271:32:32-p272:64:64-i64:64-i128:128-f80:128-n8:16:32:64-S128"
target triple = "x86_64-pc-linux-gnu"

%"class.gmx::VirtualSitesHandler::Impl" = type { i32, %"struct.gmx::DomainInfo", %"class.gmx::ArrayRef", %"class.gmx::ArrayRef.2", %"class.gmx::ThreadingInfo" }
%"struct.gmx::DomainInfo" = type { i32, i8, ptr }
%"class.gmx::ArrayRef" = type { %"struct.gmx::ArrayRefIter", %"struct.gmx::ArrayRefIter" }
%"struct.gmx::ArrayRefIter" = type { ptr }
%"class.gmx::ArrayRef.2" = type { %"struct.gmx::ArrayRefIter.3", %"struct.gmx::ArrayRefIter.3" }
%"struct.gmx::ArrayRefIter.3" = type { ptr }
%"class.gmx::ThreadingInfo" = type { i32, %"class.std::vector", %"class.std::vector.5" }
%"class.std::vector" = type { %"struct.std::_Vector_base" }
%"struct.std::_Vector_base" = type { %"struct.std::_Vector_base<std::unique_ptr<gmx::VsiteThread>, std::allocator<std::unique_ptr<gmx::VsiteThread>>>::_Vector_impl" }
%"struct.std::_Vector_base<std::unique_ptr<gmx::VsiteThread>, std::allocator<std::unique_ptr<gmx::VsiteThread>>>::_Vector_impl" = type { %"struct.std::_Vector_base<std::unique_ptr<gmx::VsiteThread>, std::allocator<std::unique_ptr<gmx::VsiteThread>>>::_Vector_impl_data" }
%"struct.std::_Vector_base<std::unique_ptr<gmx::VsiteThread>, std::allocator<std::unique_ptr<gmx::VsiteThread>>>::_Vector_impl_data" = type { ptr, ptr, ptr }
%"class.std::vector.5" = type { %"struct.std::_Vector_base.6" }
%"struct.std::_Vector_base.6" = type { %"struct.std::_Vector_base<int, std::allocator<int>>::_Vector_impl" }
%"struct.std::_Vector_base<int, std::allocator<int>>::_Vector_impl" = type { %"struct.std::_Vector_base<int, std::allocator<int>>::_Vector_impl_data" }
%"struct.std::_Vector_base<int, std::allocator<int>>::_Vector_impl_data" = type { ptr, ptr, ptr }
%union.t_iparams = type { %struct.anon.157 }
%struct.anon.157 = type { [3 x float], [3 x float], [3 x float], [3 x float] }
%struct.gmx_mtop_t = type { ptr, %struct.gmx_ffparams_t, %"class.std::vector.184", %"class.std::vector.189", i8, %"class.std::unique_ptr.194", i32, %struct.SimulationGroups, %struct.t_symtab, i8, %"class.std::vector.5", %"class.std::vector.213", i32, i32 }
%struct.gmx_ffparams_t = type { i32, %"class.std::vector.5", %"class.std::vector.174", double, float, %struct.gmx_cmap_t }
%"class.std::vector.174" = type { %"struct.std::_Vector_base.175" }
%"struct.std::_Vector_base.175" = type { %"struct.std::_Vector_base<t_iparams, std::allocator<t_iparams>>::_Vector_impl" }
%"struct.std::_Vector_base<t_iparams, std::allocator<t_iparams>>::_Vector_impl" = type { %"struct.std::_Vector_base<t_iparams, std::allocator<t_iparams>>::_Vector_impl_data" }
%"struct.std::_Vector_base<t_iparams, std::allocator<t_iparams>>::_Vector_impl_data" = type { ptr, ptr, ptr }
%struct.gmx_cmap_t = type { i32, %"class.std::vector.179" }
%"class.std::vector.179" = type { %"struct.std::_Vector_base.180" }
%"struct.std::_Vector_base.180" = type { %"struct.std::_Vector_base<gmx_cmapdata_t, std::allocator<gmx_cmapdata_t>>::_Vector_impl" }
%"struct.std::_Vector_base<gmx_cmapdata_t, std::allocator<gmx_cmapdata_t>>::_Vector_impl" = type { %"struct.std::_Vector_base<gmx_cmapdata_t, std::allocator<gmx_cmapdata_t>>::_Vector_impl_data" }
%"struct.std::_Vector_base<gmx_cmapdata_t, std::allocator<gmx_cmapdata_t>>::_Vector_impl_data" = type { ptr, ptr, ptr }
%"class.std::vector.184" = type { %"struct.std::_Vector_base.185" }
%"struct.std::_Vector_base.185" = type { %"struct.std::_Vector_base<gmx_moltype_t, std::allocator<gmx_moltype_t>>::_Vector_impl" }
%"struct.std::_Vector_base<gmx_moltype_t, std::allocator<gmx_moltype_t>>::_Vector_impl" = type { %"struct.std::_Vector_base<gmx_moltype_t, std::allocator<gmx_moltype_t>>::_Vector_impl_data" }
%"struct.std::_Vector_base<gmx_moltype_t, std::allocator<gmx_moltype_t>>::_Vector_impl_data" = type { ptr, ptr, ptr }
%"class.std::vector.189" = type { %"struct.std::_Vector_base.190" }
%"struct.std::_Vector_base.190" = type { %"struct.std::_Vector_base<gmx_molblock_t, std::allocator<gmx_molblock_t>>::_Vector_impl" }
%"struct.std::_Vector_base<gmx_molblock_t, std::allocator<gmx_molblock_t>>::_Vector_impl" = type { %"struct.std::_Vector_base<gmx_molblock_t, std::allocator<gmx_molblock_t>>::_Vector_impl_data" }
%"struct.std::_Vector_base<gmx_molblock_t, std::allocator<gmx_molblock_t>>::_Vector_impl_data" = type { ptr, ptr, ptr }
%"class.std::unique_ptr.194" = type { %"struct.std::__uniq_ptr_data.195" }
%"struct.std::__uniq_ptr_data.195" = type { %"class.std::__uniq_ptr_impl.196" }
%"class.std::__uniq_ptr_impl.196" = type { %"class.std::tuple.197" }
%"class.std::tuple.197" = type { %"struct.std::_Tuple_impl.198" }
%"struct.std::_Tuple_impl.198" = type { %"struct.std::_Head_base.201" }
%"struct.std::_Head_base.201" = type { ptr }
%struct.SimulationGroups = type { %"struct.gmx::EnumerationArray", %"class.std::vector.202", %"struct.gmx::EnumerationArray.207" }
%"struct.gmx::EnumerationArray" = type { [10 x %"class.std::vector.5"] }
%"class.std::vector.202" = type { %"struct.std::_Vector_base.203" }
%"struct.std::_Vector_base.203" = type { %"struct.std::_Vector_base<char **, std::allocator<char **>>::_Vector_impl" }
%"struct.std::_Vector_base<char **, std::allocator<char **>>::_Vector_impl" = type { %"struct.std::_Vector_base<char **, std::allocator<char **>>::_Vector_impl_data" }
%"struct.std::_Vector_base<char **, std::allocator<char **>>::_Vector_impl_data" = type { ptr, ptr, ptr }
%"struct.gmx::EnumerationArray.207" = type { [10 x %"class.std::vector.208"] }
%"class.std::vector.208" = type { %"struct.std::_Vector_base.209" }
%"struct.std::_Vector_base.209" = type { %"struct.std::_Vector_base<unsigned char, std::allocator<unsigned char>>::_Vector_impl" }
%"struct.std::_Vector_base<unsigned char, std::allocator<unsigned char>>::_Vector_impl" = type { %"struct.std::_Vector_base<unsigned char, std::allocator<unsigned char>>::_Vector_impl_data" }
%"struct.std::_Vector_base<unsigned char, std::allocator<unsigned char>>::_Vector_impl_data" = type { ptr, ptr, ptr }
%struct.t_symtab = type { i32, ptr }
%"class.std::vector.213" = type { %"struct.std::_Vector_base.214" }
%"struct.std::_Vector_base.214" = type { %"struct.std::_Vector_base<MoleculeBlockIndices, std::allocator<MoleculeBlockIndices>>::_Vector_impl" }
%"struct.std::_Vector_base<MoleculeBlockIndices, std::allocator<MoleculeBlockIndices>>::_Vector_impl" = type { %"struct.std::_Vector_base<MoleculeBlockIndices, std::allocator<MoleculeBlockIndices>>::_Vector_impl_data" }
%"struct.std::_Vector_base<MoleculeBlockIndices, std::allocator<MoleculeBlockIndices>>::_Vector_impl_data" = type { ptr, ptr, ptr }
%"class.gmx::ArrayRef.246" = type { %"struct.gmx::ArrayRefIter.247", %"struct.gmx::ArrayRefIter.247" }
%"struct.gmx::ArrayRefIter.247" = type { ptr }

@_ZN3gmx13ThreadingInfoC1Ev = unnamed_addr alias void (ptr), ptr @_ZN3gmx13ThreadingInfoC2Ev

; Function Attrs: mustprogress nounwind uwtable
define linkonce_odr noundef ptr @_ZNKSt6vectorI9t_iparamsSaIS0_EE11_M_data_ptrIS0_EEPT_S5_(ptr noundef nonnull align 8 dereferenceable(24) %0, ptr noundef %1) #0 comdat align 2 {
  %3 = alloca ptr, align 8
  %4 = alloca ptr, align 8
  store ptr %0, ptr %3, align 8, !tbaa !336
  store ptr %1, ptr %4, align 8, !tbaa !245
  %5 = load ptr, ptr %4, align 8, !tbaa !245
  ret ptr %5
}

; Function Attrs: mustprogress nounwind uwtable
define linkonce_odr void @_ZN3gmx12ArrayRefIterIK15InteractionListEC2EPS2_(ptr noundef nonnull align 8 dereferenceable(8) %0, ptr noundef %1) unnamed_addr #0 comdat align 2 {
  %3 = alloca ptr, align 8
  %4 = alloca ptr, align 8
  store ptr %0, ptr %3, align 8, !tbaa !223
  store ptr %1, ptr %4, align 8, !tbaa !137
  %5 = load ptr, ptr %3, align 8
  %6 = getelementptr inbounds nuw %"struct.gmx::ArrayRefIter.3", ptr %5, i32 0, i32 0
  %7 = load ptr, ptr %4, align 8, !tbaa !137
  store ptr %7, ptr %6, align 8, !tbaa !225
  ret void
}

; Function Attrs: mustprogress nounwind uwtable
define linkonce_odr noundef i64 @_ZNKSt6vectorI9t_iparamsSaIS0_EE4sizeEv(ptr noundef nonnull align 8 dereferenceable(24) %0) #0 comdat align 2 {
  %2 = alloca ptr, align 8
  store ptr %0, ptr %2, align 8, !tbaa !336
  %3 = load ptr, ptr %2, align 8
  %4 = getelementptr inbounds nuw %"struct.std::_Vector_base.175", ptr %3, i32 0, i32 0
  %5 = getelementptr inbounds nuw %"struct.std::_Vector_base<t_iparams, std::allocator<t_iparams>>::_Vector_impl_data", ptr %4, i32 0, i32 1
  %6 = load ptr, ptr %5, align 8, !tbaa !340
  %7 = getelementptr inbounds nuw %"struct.std::_Vector_base.175", ptr %3, i32 0, i32 0
  %8 = getelementptr inbounds nuw %"struct.std::_Vector_base<t_iparams, std::allocator<t_iparams>>::_Vector_impl_data", ptr %7, i32 0, i32 0
  %9 = load ptr, ptr %8, align 8, !tbaa !338
  %10 = ptrtoint ptr %6 to i64
  %11 = ptrtoint ptr %9 to i64
  %12 = sub i64 %10, %11
  %13 = sdiv exact i64 %12, 48
  ret i64 %13
}

; Function Attrs: mustprogress nounwind uwtable
define linkonce_odr void @_ZN3gmx12ArrayRefIterIK9t_iparamsEC2EPS2_(ptr noundef nonnull align 8 dereferenceable(8) %0, ptr noundef %1) unnamed_addr #0 comdat align 2 {
  %3 = alloca ptr, align 8
  %4 = alloca ptr, align 8
  store ptr %0, ptr %3, align 8, !tbaa !234
  store ptr %1, ptr %4, align 8, !tbaa !245
  %5 = load ptr, ptr %3, align 8
  %6 = getelementptr inbounds nuw %"struct.gmx::ArrayRefIter", ptr %5, i32 0, i32 0
  %7 = load ptr, ptr %4, align 8, !tbaa !245
  store ptr %7, ptr %6, align 8, !tbaa !236
  ret void
}

; Function Attrs: mustprogress nounwind uwtable
define linkonce_odr noundef ptr @_ZNKSt6vectorI9t_iparamsSaIS0_EE4dataEv(ptr noundef nonnull align 8 dereferenceable(24) %0) #0 comdat align 2 {
  %2 = alloca ptr, align 8
  store ptr %0, ptr %2, align 8, !tbaa !336
  %3 = load ptr, ptr %2, align 8
  %4 = getelementptr inbounds nuw %"struct.std::_Vector_base.175", ptr %3, i32 0, i32 0
  %5 = getelementptr inbounds nuw %"struct.std::_Vector_base<t_iparams, std::allocator<t_iparams>>::_Vector_impl_data", ptr %4, i32 0, i32 0
  %6 = load ptr, ptr %5, align 8, !tbaa !338
  %7 = call noundef ptr @_ZNKSt6vectorI9t_iparamsSaIS0_EE11_M_data_ptrIS0_EEPT_S5_(ptr noundef nonnull align 8 dereferenceable(24) %3, ptr noundef %6) #12
  ret ptr %7
}

; Function Attrs: mustprogress nounwind uwtable
define linkonce_odr void @_ZN3gmx8ArrayRefIK15InteractionListEC2Ev(ptr noundef nonnull align 8 dereferenceable(16) %0) unnamed_addr #0 comdat align 2 {
  %2 = alloca ptr, align 8
  store ptr %0, ptr %2, align 8, !tbaa !193
  %3 = load ptr, ptr %2, align 8
  %4 = getelementptr inbounds nuw %"class.gmx::ArrayRef.2", ptr %3, i32 0, i32 0
  call void @_ZN3gmx12ArrayRefIterIK15InteractionListEC2EPS2_(ptr noundef nonnull align 8 dereferenceable(8) %4, ptr noundef null) #12
  %5 = getelementptr inbounds nuw %"class.gmx::ArrayRef.2", ptr %3, i32 0, i32 1
  call void @_ZN3gmx12ArrayRefIterIK15InteractionListEC2EPS2_(ptr noundef nonnull align 8 dereferenceable(8) %5, ptr noundef null) #12
  ret void
}

; Function Attrs: mustprogress nounwind uwtable
define linkonce_odr void @_ZN3gmx8ArrayRefIK9t_iparamsEC2IRKSt6vectorIS1_SaIS1_EEvEEOT_(ptr noundef nonnull align 8 dereferenceable(16) %0, ptr noundef nonnull align 8 dereferenceable(24) %1) unnamed_addr #0 comdat align 2 {
  %3 = alloca ptr, align 8
  %4 = alloca ptr, align 8
  store ptr %0, ptr %3, align 8, !tbaa !191
  store ptr %1, ptr %4, align 8, !tbaa !336
  %5 = load ptr, ptr %3, align 8
  %6 = getelementptr inbounds nuw %"class.gmx::ArrayRef", ptr %5, i32 0, i32 0
  %7 = load ptr, ptr %4, align 8, !tbaa !336
  %8 = call noundef ptr @_ZNKSt6vectorI9t_iparamsSaIS0_EE4dataEv(ptr noundef nonnull align 8 dereferenceable(24) %7) #12
  call void @_ZN3gmx12ArrayRefIterIK9t_iparamsEC2EPS2_(ptr noundef nonnull align 8 dereferenceable(8) %6, ptr noundef %8) #12
  %9 = getelementptr inbounds nuw %"class.gmx::ArrayRef", ptr %5, i32 0, i32 1
  %10 = load ptr, ptr %4, align 8, !tbaa !336
  %11 = call noundef ptr @_ZNKSt6vectorI9t_iparamsSaIS0_EE4dataEv(ptr noundef nonnull align 8 dereferenceable(24) %10) #12
  %12 = load ptr, ptr %4, align 8, !tbaa !336
  %13 = call noundef i64 @_ZNKSt6vectorI9t_iparamsSaIS0_EE4sizeEv(ptr noundef nonnull align 8 dereferenceable(24) %12) #12
  %14 = getelementptr inbounds nuw %union.t_iparams, ptr %11, i64 %13
  call void @_ZN3gmx12ArrayRefIterIK9t_iparamsEC2EPS2_(ptr noundef nonnull align 8 dereferenceable(8) %9, ptr noundef %14) #12
  ret void
}

; Function Attrs: mustprogress nounwind uwtable
define linkonce_odr void @_ZN3gmx10DomainInfoC2E7PbcTypebP12gmx_domdec_t(ptr noundef nonnull align 8 dereferenceable(16) %0, i32 noundef %1, i1 noundef zeroext %2, ptr noundef %3) unnamed_addr #0 comdat align 2 {
  %5 = alloca ptr, align 8
  %6 = alloca i32, align 4
  %7 = alloca i8, align 1
  %8 = alloca ptr, align 8
  store ptr %0, ptr %5, align 8, !tbaa !163
  store i32 %1, ptr %6, align 4, !tbaa !530
  %9 = zext i1 %2 to i8
  store i8 %9, ptr %7, align 1, !tbaa !165
  store ptr %3, ptr %8, align 8, !tbaa !536
  %10 = load ptr, ptr %5, align 8
  %11 = getelementptr inbounds nuw %"struct.gmx::DomainInfo", ptr %10, i32 0, i32 0
  %12 = load i32, ptr %6, align 4, !tbaa !530
  store i32 %12, ptr %11, align 8, !tbaa !166
  %13 = getelementptr inbounds nuw %"struct.gmx::DomainInfo", ptr %10, i32 0, i32 1
  %14 = load i32, ptr %6, align 4, !tbaa !530
  %15 = icmp ne i32 %14, 1
  br i1 %15, label %16, label %19

16:                                               ; preds = %4
  %17 = load i8, ptr %7, align 1, !tbaa !165, !range !168, !noundef !169
  %18 = trunc i8 %17 to i1
  br label %19

19:                                               ; preds = %16, %4
  %20 = phi i1 [ false, %4 ], [ %18, %16 ]
  %21 = zext i1 %20 to i8
  store i8 %21, ptr %13, align 4, !tbaa !167
  %22 = getelementptr inbounds nuw %"struct.gmx::DomainInfo", ptr %10, i32 0, i32 2
  %23 = load ptr, ptr %8, align 8, !tbaa !536
  store ptr %23, ptr %22, align 8, !tbaa !170
  ret void
}

; Function Attrs: mustprogress uwtable
define void @_ZN3gmx19VirtualSitesHandler4ImplC2ERK10gmx_mtop_tP12gmx_domdec_t7PbcTypeNS_8ArrayRefIKNS_17RangePartitioningEEE(ptr noundef nonnull align 8 dereferenceable(112) %0, ptr noundef nonnull align 8 dereferenceable(768) %1, ptr noundef %2, i32 noundef %3, ptr %4, ptr %5) unnamed_addr #6 align 2 {
  %7 = alloca %"class.gmx::ArrayRef.246", align 8
  %8 = alloca ptr, align 8
  %9 = alloca ptr, align 8
  %10 = alloca ptr, align 8
  %11 = alloca i32, align 4
  %12 = alloca %"class.gmx::ArrayRef.246", align 8
  %13 = getelementptr inbounds nuw { ptr, ptr }, ptr %7, i32 0, i32 0
  store ptr %4, ptr %13, align 8
  %14 = getelementptr inbounds nuw { ptr, ptr }, ptr %7, i32 0, i32 1
  store ptr %5, ptr %14, align 8
  store ptr %0, ptr %8, align 8, !tbaa !14
  store ptr %1, ptr %9, align 8, !tbaa !299
  store ptr %2, ptr %10, align 8, !tbaa !536
  store i32 %3, ptr %11, align 4, !tbaa !530
  %15 = load ptr, ptr %8, align 8
  %16 = getelementptr inbounds nuw %"class.gmx::VirtualSitesHandler::Impl", ptr %15, i32 0, i32 0
  %17 = load ptr, ptr %9, align 8, !tbaa !299
  call void @llvm.memcpy.p0.p0.i64(ptr align 8 %12, ptr align 8 %7, i64 16, i1 false)
  %18 = getelementptr inbounds nuw { ptr, ptr }, ptr %12, i32 0, i32 0
  %19 = load ptr, ptr %18, align 8
  %20 = getelementptr inbounds nuw { ptr, ptr }, ptr %12, i32 0, i32 1
  %21 = load ptr, ptr %20, align 8
  %22 = call noundef i32 @_ZN3gmx27countInterUpdategroupVsitesERK10gmx_mtop_tNS_8ArrayRefIKNS_17RangePartitioningEEE(ptr noundef nonnull align 8 dereferenceable(768) %17, ptr %19, ptr %21)
  store i32 %22, ptr %16, align 8, !tbaa !141
  %23 = getelementptr inbounds nuw %"class.gmx::VirtualSitesHandler::Impl", ptr %15, i32 0, i32 1
  %24 = load i32, ptr %11, align 4, !tbaa !530
  %25 = load i32, ptr %11, align 4, !tbaa !530
  %26 = icmp ne i32 %25, 1
  br i1 %26, label %27, label %31

27:                                               ; preds = %6
  %28 = getelementptr inbounds nuw %"class.gmx::VirtualSitesHandler::Impl", ptr %15, i32 0, i32 0
  %29 = load i32, ptr %28, align 8, !tbaa !141
  %30 = icmp sgt i32 %29, 0
  br label %31

31:                                               ; preds = %27, %6
  %32 = phi i1 [ false, %6 ], [ %30, %27 ]
  %33 = load ptr, ptr %10, align 8, !tbaa !536
  call void @_ZN3gmx10DomainInfoC2E7PbcTypebP12gmx_domdec_t(ptr noundef nonnull align 8 dereferenceable(16) %23, i32 noundef %24, i1 noundef zeroext %32, ptr noundef %33)
  %34 = getelementptr inbounds nuw %"class.gmx::VirtualSitesHandler::Impl", ptr %15, i32 0, i32 2
  %35 = load ptr, ptr %9, align 8, !tbaa !299
  %36 = getelementptr inbounds nuw %struct.gmx_mtop_t, ptr %35, i32 0, i32 1
  %37 = getelementptr inbounds nuw %struct.gmx_ffparams_t, ptr %36, i32 0, i32 2
  call void @_ZN3gmx8ArrayRefIK9t_iparamsEC2IRKSt6vectorIS1_SaIS1_EEvEEOT_(ptr noundef nonnull align 8 dereferenceable(16) %34, ptr noundef nonnull align 8 dereferenceable(24) %37)
  %38 = getelementptr inbounds nuw %"class.gmx::VirtualSitesHandler::Impl", ptr %15, i32 0, i32 3
  call void @_ZN3gmx8ArrayRefIK15InteractionListEC2Ev(ptr noundef nonnull align 8 dereferenceable(16) %38)
  %39 = getelementptr inbounds nuw %"class.gmx::VirtualSitesHandler::Impl", ptr %15, i32 0, i32 4
  call void @_ZN3gmx13ThreadingInfoC1Ev(ptr noundef nonnull align 8 dereferenceable(56) %39)
  ret void
}