; Function Attrs: mustprogress uwtable
define void @_ZN3gmx19VirtualSitesHandler4ImplC2ERK10gmx_mtop_tP12gmx_domdec_t7PbcTypeNS_8ArrayRefIKNS_17RangePartitioningEEE(ptr noundef nonnull align 8 dereferenceable(112) initializes((0, 4), (8, 13), (16, 56)) %0, ptr noundef nonnull readonly align 8 captures(none) dereferenceable(768) %1, ptr noundef %2, i32 noundef %3, ptr %4, ptr %5) unnamed_addr #8 align 2 {
.split:
  %6 = tail call noundef i32 @_ZN3gmx27countInterUpdategroupVsitesERK10gmx_mtop_tNS_8ArrayRefIKNS_17RangePartitioningEEE(ptr noundef nonnull align 8 dereferenceable(768) %1, ptr %4, ptr %5)
  store i32 %6, ptr %0, align 8, !tbaa !39
  %.not = icmp ne i32 %3, 1
  %7 = icmp sgt i32 %6, 0
  %narrow = and i1 %.not, %7
  %.sink = zext i1 %narrow to i8
  %8 = getelementptr inbounds nuw i8, ptr %0, i64 8
  store i32 %3, ptr %8, align 8, !tbaa !61
  %9 = getelementptr inbounds nuw i8, ptr %0, i64 12
  store i8 %.sink, ptr %9, align 4, !tbaa !62
  %10 = getelementptr inbounds nuw i8, ptr %0, i64 16
  store ptr %2, ptr %10, align 8, !tbaa !60
  %11 = getelementptr inbounds nuw i8, ptr %0, i64 24
  %12 = getelementptr inbounds nuw i8, ptr %1, i64 40
  %13 = load ptr, ptr %12, align 8, !tbaa !130
  store ptr %13, ptr %11, align 8, !tbaa !68
  %14 = getelementptr inbounds nuw i8, ptr %0, i64 32
  %15 = getelementptr inbounds nuw i8, ptr %1, i64 48
  %16 = load ptr, ptr %15, align 8, !tbaa !279
  %17 = ptrtoint ptr %16 to i64
  %18 = ptrtoint ptr %13 to i64
  %19 = sub i64 %17, %18
  %20 = getelementptr inbounds nuw i8, ptr %13, i64 %19
  store ptr %20, ptr %14, align 8, !tbaa !68
  %21 = getelementptr inbounds nuw i8, ptr %0, i64 40
  tail call void @llvm.memset.p0.i64(ptr noundef nonnull align 8 dereferenceable(16) %21, i8 0, i64 16, i1 false)
  %22 = getelementptr inbounds nuw i8, ptr %0, i64 56
  tail call void @_ZN3gmx13ThreadingInfoC1Ev(ptr noundef nonnull align 8 dereferenceable(56) %22)
  ret void
}